; Function Attrs: nounwind uwtable
define dso_local void @ReorderBufferSetBaseSnapshot(ptr noundef %0, i32 noundef %1, i64 noundef %2, ptr noundef %3) local_unnamed_addr #0 {
  %5 = alloca i32, align 4
  %6 = alloca i8, align 1
  %7 = alloca i8, align 1
  call void @llvm.lifetime.start.p0(i64 1, ptr nonnull %7) #19
  %8 = call fastcc ptr @ReorderBufferTXNByXid(ptr noundef %0, i32 noundef %1, i1 noundef zeroext true, ptr noundef nonnull %7, i64 noundef %2, i1 noundef zeroext true)
  %9 = load i32, ptr %8, align 8
  %10 = and i32 %9, 2
  %.not = icmp eq i32 %10, 0
  br i1 %.not, label %31, label %11

11:                                               ; preds = %4
  %12 = getelementptr inbounds nuw i8, ptr %8, i64 8
  %13 = load i32, ptr %12, align 8
  call void @llvm.lifetime.start.p0(i64 4, ptr nonnull %5)
  store i32 %13, ptr %5, align 4
  call void @llvm.lifetime.start.p0(i64 1, ptr nonnull %6) #19
  %14 = getelementptr inbounds nuw i8, ptr %0, i64 64
  %15 = load i32, ptr %14, align 8
  %.not.i = icmp ne i32 %15, 0
  %16 = icmp eq i32 %15, %13
  %or.cond.i = and i1 %.not.i, %16
  br i1 %or.cond.i, label %17, label %20

17:                                               ; preds = %11
  %18 = getelementptr inbounds nuw i8, ptr %0, i64 72
  %19 = load ptr, ptr %18, align 8
  br label %ReorderBufferTXNByXid.exit

20:                                               ; preds = %11
  %21 = load ptr, ptr %0, align 8
  %22 = call ptr @hash_search(ptr noundef %21, ptr noundef nonnull %5, i32 noundef 0, ptr noundef nonnull %6) #19
  %23 = load i8, ptr %6, align 1, !range !6, !noundef !7
  %24 = trunc nuw i8 %23 to i1
  br i1 %24, label %25, label %28

25:                                               ; preds = %20
  %26 = getelementptr inbounds nuw i8, ptr %22, i64 8
  %27 = load ptr, ptr %26, align 8
  br label %28

28:                                               ; preds = %20, %25
  %.030.i = phi ptr [ %27, %25 ], [ null, %20 ]
  %29 = load i32, ptr %5, align 4
  store i32 %29, ptr %14, align 8
  %30 = getelementptr inbounds nuw i8, ptr %0, i64 72
  store ptr %.030.i, ptr %30, align 8
  br label %ReorderBufferTXNByXid.exit

ReorderBufferTXNByXid.exit:                       ; preds = %17, %28
  %.0.i = phi ptr [ %.030.i, %28 ], [ %19, %17 ]
  call void @llvm.lifetime.end.p0(i64 1, ptr nonnull %6) #19
  call void @llvm.lifetime.end.p0(i64 4, ptr nonnull %5)
  br label %31

31:                                               ; preds = %ReorderBufferTXNByXid.exit, %4
  %.0 = phi ptr [ %.0.i, %ReorderBufferTXNByXid.exit ], [ %8, %4 ]
  %32 = getelementptr inbounds nuw i8, ptr %.0, i64 88
  store ptr %3, ptr %32, align 8
  %33 = getelementptr inbounds nuw i8, ptr %.0, i64 96
  store i64 %2, ptr %33, align 8
  %34 = getelementptr inbounds nuw i8, ptr %0, i64 24
  %35 = getelementptr inbounds nuw i8, ptr %0, i64 32
  %36 = load ptr, ptr %35, align 8
  %37 = icmp eq ptr %36, null
  br i1 %37, label %38, label %dlist_push_tail.exit

38:                                               ; preds = %31
  store ptr %34, ptr %34, align 8
  store ptr %34, ptr %35, align 8
  br label %dlist_push_tail.exit

dlist_push_tail.exit:                             ; preds = %31, %38
  %39 = getelementptr inbounds nuw i8, ptr %.0, i64 104
  %40 = getelementptr inbounds nuw i8, ptr %.0, i64 112
  store ptr %34, ptr %40, align 8
  %41 = load ptr, ptr %34, align 8
  store ptr %41, ptr %39, align 8
  %42 = getelementptr inbounds nuw i8, ptr %41, i64 8
  store ptr %39, ptr %42, align 8
  store ptr %39, ptr %34, align 8
  call void @llvm.lifetime.end.p0(i64 1, ptr nonnull %7) #19
  ret void
}